; Function Attrs: mustprogress uwtable
define hidden noundef ptr @_ZN7datalog21bound_relation_plugin13mk_project_fnERKNS_13relation_baseEjPKj(ptr nonnull readnone align 8 captures(none) %0, ptr noundef nonnull align 8 dereferenceable(28) %1, i32 noundef %2, ptr noundef %3) unnamed_addr #3 align 2 personality ptr @__gxx_personality_v0 {
  %5 = tail call noalias noundef ptr @_ZN6memory8allocateEm(i64 noundef 24)
  %6 = getelementptr inbounds nuw i8, ptr %1, i64 16
  %7 = getelementptr inbounds nuw i8, ptr %5, i64 8
  store ptr null, ptr %7, align 8, !tbaa !37
  store ptr getelementptr inbounds nuw inrange(-16, 24) (i8, ptr @_ZTVN7datalog17tr_infrastructureINS_15relation_traitsEE21convenient_project_fnE, i64 16), ptr %5, align 8, !tbaa !17
  %8 = getelementptr inbounds nuw i8, ptr %5, i64 16
  store ptr null, ptr %8, align 8, !tbaa !61
  %.not.i.i.i.i = icmp eq i32 %2, 0
  br i1 %.not.i.i.i.i, label %_ZN7svectorIjjEC2EjPKj.exit.i.i, label %.lr.ph.preheader.i.i.i.i

.lr.ph.preheader.i.i.i.i:                         ; preds = %4
  %wide.trip.count.i.i.i.i = zext i32 %2 to i64
  br label %.lr.ph.i.i.i.i

.lr.ph.i.i.i.i:                                   ; preds = %_ZN6vectorIjLb0EjE9push_backERKj.exit.i.i.i.i, %.lr.ph.preheader.i.i.i.i
  %9 = phi ptr [ null, %.lr.ph.preheader.i.i.i.i ], [ %19, %_ZN6vectorIjLb0EjE9push_backERKj.exit.i.i.i.i ]
  %indvars.iv.i.i.i.i = phi i64 [ 0, %.lr.ph.preheader.i.i.i.i ], [ %indvars.iv.next.i.i.i.i, %_ZN6vectorIjLb0EjE9push_backERKj.exit.i.i.i.i ]
  %10 = getelementptr inbounds nuw i32, ptr %3, i64 %indvars.iv.i.i.i.i
  %11 = icmp eq ptr %9, null
  br i1 %11, label %18, label %12

12:                                               ; preds = %.lr.ph.i.i.i.i
  %13 = getelementptr inbounds i8, ptr %9, i64 -4
  %14 = load i32, ptr %13, align 4, !tbaa !40
  %15 = getelementptr inbounds i8, ptr %9, i64 -8
  %16 = load i32, ptr %15, align 4, !tbaa !40
  %17 = icmp eq i32 %14, %16
  br i1 %17, label %18, label %_ZN6vectorIjLb0EjE9push_backERKj.exit.i.i.i.i

18:                                               ; preds = %12, %.lr.ph.i.i.i.i
  invoke void @_ZN6vectorIjLb0EjE13expand_vectorEv(ptr noundef nonnull align 8 dereferenceable(8) %8)
          to label %.noexc.i.i unwind label %26

.noexc.i.i:                                       ; preds = %18
  %.pre.i.i.i.i.i = load ptr, ptr %8, align 8, !tbaa !61
  %.phi.trans.insert.i.i.i.i.i = getelementptr inbounds i8, ptr %.pre.i.i.i.i.i, i64 -4
  %.pre2.i.i.i.i.i = load i32, ptr %.phi.trans.insert.i.i.i.i.i, align 4, !tbaa !40
  br label %_ZN6vectorIjLb0EjE9push_backERKj.exit.i.i.i.i

_ZN6vectorIjLb0EjE9push_backERKj.exit.i.i.i.i:    ; preds = %.noexc.i.i, %12
  %19 = phi ptr [ %.pre.i.i.i.i.i, %.noexc.i.i ], [ %9, %12 ]
  %20 = phi i32 [ %.pre2.i.i.i.i.i, %.noexc.i.i ], [ %14, %12 ]
  %21 = getelementptr inbounds i8, ptr %19, i64 -4
  %22 = zext i32 %20 to i64
  %23 = getelementptr inbounds nuw i32, ptr %19, i64 %22
  %24 = load i32, ptr %10, align 4, !tbaa !40
  store i32 %24, ptr %23, align 4, !tbaa !40
  %25 = add i32 %20, 1
  store i32 %25, ptr %21, align 4, !tbaa !40
  %indvars.iv.next.i.i.i.i = add nuw nsw i64 %indvars.iv.i.i.i.i, 1
  %exitcond.not.i.i.i.i = icmp eq i64 %indvars.iv.next.i.i.i.i, %wide.trip.count.i.i.i.i
  br i1 %exitcond.not.i.i.i.i, label %_ZN7svectorIjjEC2EjPKj.exit.i.i, label %.lr.ph.i.i.i.i, !llvm.loop !62

_ZN7svectorIjjEC2EjPKj.exit.i.i:                  ; preds = %_ZN6vectorIjLb0EjE9push_backERKj.exit.i.i.i.i, %4
  invoke void @_ZN7datalog17tr_infrastructureINS_15relation_traitsEE14signature_base12from_projectERKNS_18relation_signatureEjPKjRS4_(ptr noundef nonnull align 8 dereferenceable(8) %6, i32 noundef %2, ptr noundef %3, ptr noundef nonnull align 8 dereferenceable(8) %7)
          to label %_ZN7datalog21bound_relation_plugin10project_fnC2ERKNS_18relation_signatureEjPKj.exit unwind label %28

26:                                               ; preds = %18
  %27 = landingpad { ptr, i32 }
          cleanup
  br label %30

28:                                               ; preds = %_ZN7svectorIjjEC2EjPKj.exit.i.i
  %29 = landingpad { ptr, i32 }
          cleanup
  tail call void @_ZN6vectorIjLb0EjED2Ev(ptr noundef nonnull align 8 dereferenceable(8) %8) #24
  br label %30

30:                                               ; preds = %28, %26
  %.pn.i.i = phi { ptr, i32 } [ %29, %28 ], [ %27, %26 ]
  tail call void @_ZN7datalog17tr_infrastructureINS_15relation_traitsEE25convenient_transformer_fnD2Ev(ptr noundef nonnull align 8 dereferenceable(24) %5) #24
  resume { ptr, i32 } %.pn.i.i

_ZN7datalog21bound_relation_plugin10project_fnC2ERKNS_18relation_signatureEjPKj.exit: ; preds = %_ZN7svectorIjjEC2EjPKj.exit.i.i
  store ptr getelementptr inbounds nuw inrange(-16, 24) (i8, ptr @_ZTVN7datalog21bound_relation_plugin10project_fnE, i64 16), ptr %5, align 8, !tbaa !17
  ret ptr %5
}